target datalayout = "e-m:e-p270:32:32-p271:32:32-p272:64:64-i64:64-i128:128-f80:128-n8:16:32:64-S128"
target triple = "x86_64-pc-linux-gnu"

%struct.V360Context = type { ptr, i32, i32, i32, i32, i32, i32, i32, ptr, ptr, ptr, ptr, ptr, [6 x i32], [6 x i32], [6 x i32], [6 x i32], [3 x i32], i32, i32, float, float, i32, i32, float, float, float, float, float, i32, i32, i32, i32, i32, i32, i32, float, float, float, float, float, float, [2 x float], [2 x float], [2 x [4 x float]], [3 x float], i32, i32, i32, i32, [4 x i32], [4 x i32], [4 x i32], [4 x i32], [4 x i32], [4 x i32], [4 x i32], [4 x i32], [4 x i32], [4 x i32], [4 x i32], i32, i32, i32, i32, i32, i32, ptr, [4 x i32], ptr, ptr, ptr, ptr, ptr }

; Function Attrs: alwaysinline nounwind willreturn memory(none) uwtable
define internal i32 @av_clip_c(i32 noundef %0, i32 noundef %1, i32 noundef %2) #3 {
  %4 = alloca i32, align 4
  %5 = alloca i32, align 4
  %6 = alloca i32, align 4
  %7 = alloca i32, align 4
  store i32 %0, ptr %5, align 4, !tbaa !9
  store i32 %1, ptr %6, align 4, !tbaa !9
  store i32 %2, ptr %7, align 4, !tbaa !9
  %8 = load i32, ptr %5, align 4, !tbaa !9
  %9 = load i32, ptr %6, align 4, !tbaa !9
  %10 = icmp slt i32 %8, %9
  br i1 %10, label %11, label %13

11:                                               ; preds = %3
  %12 = load i32, ptr %6, align 4, !tbaa !9
  store i32 %12, ptr %4, align 4
  br label %21

13:                                               ; preds = %3
  %14 = load i32, ptr %5, align 4, !tbaa !9
  %15 = load i32, ptr %7, align 4, !tbaa !9
  %16 = icmp sgt i32 %14, %15
  br i1 %16, label %17, label %19

17:                                               ; preds = %13
  %18 = load i32, ptr %7, align 4, !tbaa !9
  store i32 %18, ptr %4, align 4
  br label %21

19:                                               ; preds = %13
  %20 = load i32, ptr %5, align 4, !tbaa !9
  store i32 %20, ptr %4, align 4
  br label %21

21:                                               ; preds = %19, %17, %11
  %22 = load i32, ptr %4, align 4
  ret i32 %22
}

; Function Attrs: alwaysinline nounwind uwtable
define internal float @scale(float noundef %0, float noundef %1) #12 {
  %3 = alloca float, align 4
  %4 = alloca float, align 4
  store float %0, ptr %3, align 4, !tbaa !99
  store float %1, ptr %4, align 4, !tbaa !99
  %5 = load float, ptr %3, align 4, !tbaa !99
  %6 = call nsz float @llvm.fmuladd.f32(float 5.000000e-01, float %5, float 5.000000e-01)
  %7 = load float, ptr %4, align 4, !tbaa !99
  %8 = fsub nsz float %7, 1.000000e+00
  %9 = fmul nsz float %6, %8
  ret float %9
}

; Function Attrs: nounwind uwtable
define internal i32 @xyz_to_orthographic(ptr noundef %0, ptr noundef %1, i32 noundef %2, i32 noundef %3, ptr noundef %4, ptr noundef %5, ptr noundef %6, ptr noundef %7) #0 {
  %9 = alloca ptr, align 8
  %10 = alloca ptr, align 8
  %11 = alloca i32, align 4
  %12 = alloca i32, align 4
  %13 = alloca ptr, align 8
  %14 = alloca ptr, align 8
  %15 = alloca ptr, align 8
  %16 = alloca ptr, align 8
  %17 = alloca float, align 4
  %18 = alloca float, align 4
  %19 = alloca float, align 4
  %20 = alloca float, align 4
  %21 = alloca float, align 4
  %22 = alloca float, align 4
  %23 = alloca float, align 4
  %24 = alloca i32, align 4
  %25 = alloca i32, align 4
  %26 = alloca i32, align 4
  %27 = alloca i32, align 4
  %28 = alloca i32, align 4
  %29 = alloca i32, align 4
  store ptr %0, ptr %9, align 8, !tbaa !4
  store ptr %1, ptr %10, align 8, !tbaa !188
  store i32 %2, ptr %11, align 4, !tbaa !9
  store i32 %3, ptr %12, align 4, !tbaa !9
  store ptr %4, ptr %13, align 8, !tbaa !21
  store ptr %5, ptr %14, align 8, !tbaa !21
  store ptr %6, ptr %15, align 8, !tbaa !188
  store ptr %7, ptr %16, align 8, !tbaa !188
  call void @llvm.lifetime.start.p0(i64 4, ptr %17) #13
  %30 = load ptr, ptr %10, align 8, !tbaa !188
  %31 = getelementptr inbounds float, ptr %30, i64 2
  %32 = load float, ptr %31, align 4, !tbaa !99
  %33 = call nsz float @llvm.acos.f32(float %32)
  store float %33, ptr %17, align 4, !tbaa !99
  call void @llvm.lifetime.start.p0(i64 4, ptr %18) #13
  %34 = load float, ptr %17, align 4, !tbaa !99
  %35 = call nsz float @llvm.sin.f32(float %34)
  store float %35, ptr %18, align 4, !tbaa !99
  call void @llvm.lifetime.start.p0(i64 4, ptr %19) #13
  %36 = load float, ptr %18, align 4, !tbaa !99
  %37 = load ptr, ptr %10, align 8, !tbaa !188
  %38 = getelementptr inbounds float, ptr %37, i64 0
  %39 = load float, ptr %38, align 4, !tbaa !99
  %40 = load ptr, ptr %10, align 8, !tbaa !188
  %41 = getelementptr inbounds float, ptr %40, i64 1
  %42 = load float, ptr %41, align 4, !tbaa !99
  %43 = call nsz float @hypotf(float noundef %39, float noundef %42) #14
  %44 = fdiv nsz float %36, %43
  store float %44, ptr %19, align 4, !tbaa !99
  call void @llvm.lifetime.start.p0(i64 4, ptr %20) #13
  %45 = load ptr, ptr %10, align 8, !tbaa !188
  %46 = getelementptr inbounds float, ptr %45, i64 0
  %47 = load float, ptr %46, align 4, !tbaa !99
  %48 = load float, ptr %19, align 4, !tbaa !99
  %49 = fmul nsz float %47, %48
  %50 = load ptr, ptr %9, align 8, !tbaa !4
  %51 = getelementptr inbounds nuw %struct.V360Context, ptr %50, i32 0, i32 43
  %52 = getelementptr inbounds [2 x float], ptr %51, i64 0, i64 0
  %53 = load float, ptr %52, align 4, !tbaa !99
  %54 = fdiv nsz float %49, %53
  store float %54, ptr %20, align 4, !tbaa !99
  call void @llvm.lifetime.start.p0(i64 4, ptr %21) #13
  %55 = load ptr, ptr %10, align 8, !tbaa !188
  %56 = getelementptr inbounds float, ptr %55, i64 1
  %57 = load float, ptr %56, align 4, !tbaa !99
  %58 = load float, ptr %19, align 4, !tbaa !99
  %59 = fmul nsz float %57, %58
  %60 = load ptr, ptr %9, align 8, !tbaa !4
  %61 = getelementptr inbounds nuw %struct.V360Context, ptr %60, i32 0, i32 43
  %62 = getelementptr inbounds [2 x float], ptr %61, i64 0, i64 1
  %63 = load float, ptr %62, align 4, !tbaa !99
  %64 = fdiv nsz float %59, %63
  store float %64, ptr %21, align 4, !tbaa !99
  call void @llvm.lifetime.start.p0(i64 4, ptr %22) #13
  %65 = load float, ptr %20, align 4, !tbaa !99
  %66 = load i32, ptr %11, align 4, !tbaa !9
  %67 = sitofp i32 %66 to float
  %68 = call nsz float @scale(float noundef %65, float noundef %67)
  store float %68, ptr %22, align 4, !tbaa !99
  call void @llvm.lifetime.start.p0(i64 4, ptr %23) #13
  %69 = load float, ptr %21, align 4, !tbaa !99
  %70 = load i32, ptr %12, align 4, !tbaa !9
  %71 = sitofp i32 %70 to float
  %72 = call nsz float @scale(float noundef %69, float noundef %71)
  store float %72, ptr %23, align 4, !tbaa !99
  call void @llvm.lifetime.start.p0(i64 4, ptr %24) #13
  %73 = load float, ptr %22, align 4, !tbaa !99
  %74 = call nsz float @llvm.floor.f32(float %73)
  %75 = fptosi float %74 to i32
  store i32 %75, ptr %24, align 4, !tbaa !9
  call void @llvm.lifetime.start.p0(i64 4, ptr %25) #13
  %76 = load float, ptr %23, align 4, !tbaa !99
  %77 = call nsz float @llvm.floor.f32(float %76)
  %78 = fptosi float %77 to i32
  store i32 %78, ptr %25, align 4, !tbaa !9
  call void @llvm.lifetime.start.p0(i64 4, ptr %26) #13
  %79 = load ptr, ptr %10, align 8, !tbaa !188
  %80 = getelementptr inbounds float, ptr %79, i64 2
  %81 = load float, ptr %80, align 4, !tbaa !99
  %82 = fcmp nsz oge float %81, 0.000000e+00
  br i1 %82, label %83, label %103

83:                                               ; preds = %8
  %84 = load float, ptr %20, align 4, !tbaa !99
  %85 = call i1 @llvm.is.fpclass.f32(float %84, i32 504)
  br i1 %85, label %86, label %103

86:                                               ; preds = %83
  %87 = load float, ptr %21, align 4, !tbaa !99
  %88 = call i1 @llvm.is.fpclass.f32(float %87, i32 504)
  br i1 %88, label %89, label %103

89:                                               ; preds = %86
  %90 = load i32, ptr %25, align 4, !tbaa !9
  %91 = icmp sge i32 %90, 0
  br i1 %91, label %92, label %103

92:                                               ; preds = %89
  %93 = load i32, ptr %25, align 4, !tbaa !9
  %94 = load i32, ptr %12, align 4, !tbaa !9
  %95 = icmp slt i32 %93, %94
  br i1 %95, label %96, label %103

96:                                               ; preds = %92
  %97 = load i32, ptr %24, align 4, !tbaa !9
  %98 = icmp sge i32 %97, 0
  br i1 %98, label %99, label %103

99:                                               ; preds = %96
  %100 = load i32, ptr %24, align 4, !tbaa !9
  %101 = load i32, ptr %11, align 4, !tbaa !9
  %102 = icmp slt i32 %100, %101
  br label %103

103:                                              ; preds = %99, %96, %92, %89, %86, %83, %8
  %104 = phi i1 [ false, %96 ], [ false, %92 ], [ false, %89 ], [ false, %86 ], [ false, %83 ], [ false, %8 ], [ %102, %99 ]
  %105 = zext i1 %104 to i32
  store i32 %105, ptr %26, align 4, !tbaa !9
  %106 = load i32, ptr %26, align 4, !tbaa !9
  %107 = icmp ne i32 %106, 0
  br i1 %107, label %108, label %113

108:                                              ; preds = %103
  %109 = load float, ptr %22, align 4, !tbaa !99
  %110 = load i32, ptr %24, align 4, !tbaa !9
  %111 = sitofp i32 %110 to float
  %112 = fsub nsz float %109, %111
  br label %114

113:                                              ; preds = %103
  br label %114

114:                                              ; preds = %113, %108
  %115 = phi nsz float [ %112, %108 ], [ 0.000000e+00, %113 ]
  %116 = load ptr, ptr %15, align 8, !tbaa !188
  store float %115, ptr %116, align 4, !tbaa !99
  %117 = load i32, ptr %26, align 4, !tbaa !9
  %118 = icmp ne i32 %117, 0
  br i1 %118, label %119, label %124

119:                                              ; preds = %114
  %120 = load float, ptr %23, align 4, !tbaa !99
  %121 = load i32, ptr %25, align 4, !tbaa !9
  %122 = sitofp i32 %121 to float
  %123 = fsub nsz float %120, %122
  br label %125

124:                                              ; preds = %114
  br label %125

125:                                              ; preds = %124, %119
  %126 = phi nsz float [ %123, %119 ], [ 0.000000e+00, %124 ]
  %127 = load ptr, ptr %16, align 8, !tbaa !188
  store float %126, ptr %127, align 4, !tbaa !99
  call void @llvm.lifetime.start.p0(i64 4, ptr %27) #13
  store i32 0, ptr %27, align 4, !tbaa !9
  br label %128

128:                                              ; preds = %184, %125
  %129 = load i32, ptr %27, align 4, !tbaa !9
  %130 = icmp slt i32 %129, 4
  br i1 %130, label %132, label %131

131:                                              ; preds = %128
  store i32 2, ptr %28, align 4
  call void @llvm.lifetime.end.p0(i64 4, ptr %27) #13
  br label %187

132:                                              ; preds = %128
  call void @llvm.lifetime.start.p0(i64 4, ptr %29) #13
  store i32 0, ptr %29, align 4, !tbaa !9
  br label %133

133:                                              ; preds = %180, %132
  %134 = load i32, ptr %29, align 4, !tbaa !9
  %135 = icmp slt i32 %134, 4
  br i1 %135, label %137, label %136

136:                                              ; preds = %133
  store i32 5, ptr %28, align 4
  call void @llvm.lifetime.end.p0(i64 4, ptr %29) #13
  br label %183

137:                                              ; preds = %133
  %138 = load i32, ptr %26, align 4, !tbaa !9
  %139 = icmp ne i32 %138, 0
  br i1 %139, label %140, label %148

140:                                              ; preds = %137
  %141 = load i32, ptr %24, align 4, !tbaa !9
  %142 = load i32, ptr %29, align 4, !tbaa !9
  %143 = add nsw i32 %141, %142
  %144 = sub nsw i32 %143, 1
  %145 = load i32, ptr %11, align 4, !tbaa !9
  %146 = sub nsw i32 %145, 1
  %147 = call i32 @av_clip_c(i32 noundef %144, i32 noundef 0, i32 noundef %146) #14
  br label %149

148:                                              ; preds = %137
  br label %149

149:                                              ; preds = %148, %140
  %150 = phi i32 [ %147, %140 ], [ 0, %148 ]
  %151 = trunc i32 %150 to i16
  %152 = load ptr, ptr %13, align 8, !tbaa !21
  %153 = load i32, ptr %27, align 4, !tbaa !9
  %154 = sext i32 %153 to i64
  %155 = getelementptr inbounds [4 x i16], ptr %152, i64 %154
  %156 = load i32, ptr %29, align 4, !tbaa !9
  %157 = sext i32 %156 to i64
  %158 = getelementptr inbounds [4 x i16], ptr %155, i64 0, i64 %157
  store i16 %151, ptr %158, align 2, !tbaa !23
  %159 = load i32, ptr %26, align 4, !tbaa !9
  %160 = icmp ne i32 %159, 0
  br i1 %160, label %161, label %169

161:                                              ; preds = %149
  %162 = load i32, ptr %25, align 4, !tbaa !9
  %163 = load i32, ptr %27, align 4, !tbaa !9
  %164 = add nsw i32 %162, %163
  %165 = sub nsw i32 %164, 1
  %166 = load i32, ptr %12, align 4, !tbaa !9
  %167 = sub nsw i32 %166, 1
  %168 = call i32 @av_clip_c(i32 noundef %165, i32 noundef 0, i32 noundef %167) #14
  br label %170

169:                                              ; preds = %149
  br label %170

170:                                              ; preds = %169, %161
  %171 = phi i32 [ %168, %161 ], [ 0, %169 ]
  %172 = trunc i32 %171 to i16
  %173 = load ptr, ptr %14, align 8, !tbaa !21
  %174 = load i32, ptr %27, align 4, !tbaa !9
  %175 = sext i32 %174 to i64
  %176 = getelementptr inbounds [4 x i16], ptr %173, i64 %175
  %177 = load i32, ptr %29, align 4, !tbaa !9
  %178 = sext i32 %177 to i64
  %179 = getelementptr inbounds [4 x i16], ptr %176, i64 0, i64 %178
  store i16 %172, ptr %179, align 2, !tbaa !23
  br label %180

180:                                              ; preds = %170
  %181 = load i32, ptr %29, align 4, !tbaa !9
  %182 = add nsw i32 %181, 1
  store i32 %182, ptr %29, align 4, !tbaa !9
  br label %133, !llvm.loop !240

183:                                              ; preds = %136
  br label %184

184:                                              ; preds = %183
  %185 = load i32, ptr %27, align 4, !tbaa !9
  %186 = add nsw i32 %185, 1
  store i32 %186, ptr %27, align 4, !tbaa !9
  br label %128, !llvm.loop !241

187:                                              ; preds = %131
  %188 = load i32, ptr %26, align 4, !tbaa !9
  store i32 1, ptr %28, align 4
  call void @llvm.lifetime.end.p0(i64 4, ptr %26) #13
  call void @llvm.lifetime.end.p0(i64 4, ptr %25) #13
  call void @llvm.lifetime.end.p0(i64 4, ptr %24) #13
  call void @llvm.lifetime.end.p0(i64 4, ptr %23) #13
  call void @llvm.lifetime.end.p0(i64 4, ptr %22) #13
  call void @llvm.lifetime.end.p0(i64 4, ptr %21) #13
  call void @llvm.lifetime.end.p0(i64 4, ptr %20) #13
  call void @llvm.lifetime.end.p0(i64 4, ptr %19) #13
  call void @llvm.lifetime.end.p0(i64 4, ptr %18) #13
  call void @llvm.lifetime.end.p0(i64 4, ptr %17) #13
  ret i32 %188
}