; Function Attrs: nofree norecurse nosync nounwind memory(argmem: readwrite) uwtable
define internal range(i32 0, 2) i32 @xyz_to_orthographic(ptr noundef readonly captures(none) %0, ptr noundef readonly captures(none) %1, i32 noundef %2, i32 noundef %3, ptr noundef writeonly captures(none) %4, ptr noundef writeonly captures(none) %5, ptr noundef writeonly captures(none) initializes((0, 4)) %6, ptr noundef writeonly captures(none) initializes((0, 4)) %7) #1 {
  %9 = getelementptr inbounds nuw i8, ptr %1, i64 8
  %10 = load float, ptr %9, align 4, !tbaa !49
  %11 = tail call nsz float @llvm.acos.f32(float %10)
  %12 = tail call nsz float @llvm.sin.f32(float %11)
  %13 = load float, ptr %1, align 4, !tbaa !49
  %14 = getelementptr inbounds nuw i8, ptr %1, i64 4
  %15 = load float, ptr %14, align 4, !tbaa !49
  %16 = tail call nsz float @hypotf(float noundef %13, float noundef %15) #19
  %17 = fdiv nsz float %12, %16
  %18 = fmul nsz float %13, %17
  %19 = getelementptr inbounds nuw i8, ptr %0, i64 292
  %20 = load float, ptr %19, align 4, !tbaa !49
  %21 = fdiv nsz float %18, %20
  %22 = fmul nsz float %15, %17
  %23 = getelementptr inbounds nuw i8, ptr %0, i64 296
  %24 = load float, ptr %23, align 4, !tbaa !49
  %25 = fdiv nsz float %22, %24
  %26 = sitofp i32 %2 to float
  %27 = tail call nsz float @llvm.fmuladd.f32(float %21, float 5.000000e-01, float 5.000000e-01)
  %28 = fadd nsz float %26, -1.000000e+00
  %29 = fmul nsz float %28, %27
  %30 = sitofp i32 %3 to float
  %31 = tail call nsz float @llvm.fmuladd.f32(float %25, float 5.000000e-01, float 5.000000e-01)
  %32 = fadd nsz float %30, -1.000000e+00
  %33 = fmul nsz float %32, %31
  %34 = tail call nsz float @llvm.floor.f32(float %29)
  %35 = fptosi float %34 to i32
  %36 = tail call nsz float @llvm.floor.f32(float %33)
  %37 = fptosi float %36 to i32
  %38 = fcmp nsz ult float %10, 0.000000e+00
  %39 = tail call float @llvm.fabs.f32(float %21)
  %40 = fcmp ueq float %39, 0x7FF0000000000000
  %or.cond59 = or i1 %38, %40
  br i1 %or.cond59, label %.preheader.preheader, label %41

41:                                               ; preds = %8
  %42 = tail call float @llvm.fabs.f32(float %25)
  %43 = fcmp one float %42, 0x7FF0000000000000
  %44 = icmp sgt i32 %37, -1
  %or.cond = select i1 %43, i1 %44, i1 false
  br i1 %or.cond, label %45, label %.preheader.preheader

45:                                               ; preds = %41
  %46 = icmp sgt i32 %3, %37
  %47 = icmp sgt i32 %35, -1
  %48 = icmp sgt i32 %2, %35
  %49 = and i1 %47, %48
  %spec.select = select i1 %46, i1 %49, i1 false
  %cond.fr62 = freeze i1 %spec.select
  br i1 %cond.fr62, label %.preheader.us.preheader, label %.preheader.preheader

.preheader.preheader:                             ; preds = %45, %41, %8
  store float 0.000000e+00, ptr %6, align 4, !tbaa !49
  store float 0.000000e+00, ptr %7, align 4, !tbaa !49
  br label %.preheader

.preheader.us.preheader:                          ; preds = %45
  %50 = sitofp i32 %35 to float
  %51 = fsub nsz float %29, %50
  store float %51, ptr %6, align 4, !tbaa !49
  %52 = uitofp nneg i32 %37 to float
  %53 = fsub nsz float %33, %52
  store float %53, ptr %7, align 4, !tbaa !49
  %54 = sext i32 %35 to i64
  %55 = zext nneg i32 %37 to i64
  br label %.preheader.us

.preheader.us:                                    ; preds = %.preheader.us.preheader, %.split.us.us
  %indvars.iv84 = phi i64 [ 0, %.preheader.us.preheader ], [ %indvars.iv.next85, %.split.us.us ]
  %56 = add nuw nsw i64 %indvars.iv84, %55
  %57 = trunc nsw i64 %56 to i32
  %58 = tail call i32 @llvm.smin.i32(i32 %57, i32 %3)
  %.inv68.us.not = icmp eq i64 %56, 0
  %59 = trunc i32 %58 to i16
  %60 = add i16 %59, -1
  %61 = select i1 %.inv68.us.not, i16 0, i16 %60
  br label %62

62:                                               ; preds = %62, %.preheader.us
  %indvars.iv80 = phi i64 [ %indvars.iv.next81, %62 ], [ 0, %.preheader.us ]
  %63 = add nsw i64 %indvars.iv80, %54
  %64 = trunc nsw i64 %63 to i32
  %65 = tail call i32 @llvm.smin.i32(i32 %64, i32 %2)
  %.inv.us.us = icmp sgt i64 %63, 0
  %66 = trunc i32 %65 to i16
  %67 = add i16 %66, -1
  %68 = select i1 %.inv.us.us, i16 %67, i16 0
  %69 = getelementptr inbounds nuw [4 x i16], ptr %4, i64 %indvars.iv84, i64 %indvars.iv80
  store i16 %68, ptr %69, align 2, !tbaa !15
  %70 = getelementptr inbounds nuw [4 x i16], ptr %5, i64 %indvars.iv84, i64 %indvars.iv80
  store i16 %61, ptr %70, align 2, !tbaa !15
  %indvars.iv.next81 = add nuw nsw i64 %indvars.iv80, 1
  %exitcond83.not = icmp eq i64 %indvars.iv.next81, 4
  br i1 %exitcond83.not, label %.split.us.us, label %62, !llvm.loop !229

.split.us.us:                                     ; preds = %62
  %indvars.iv.next85 = add nuw nsw i64 %indvars.iv84, 1
  %exitcond87.not = icmp eq i64 %indvars.iv.next85, 4
  br i1 %exitcond87.not, label %.split73.us, label %.preheader.us, !llvm.loop !230

.preheader:                                       ; preds = %.preheader.preheader, %.split
  %indvars.iv76 = phi i64 [ 0, %.preheader.preheader ], [ %indvars.iv.next77, %.split ]
  br label %72

.split73.us:                                      ; preds = %.split.us.us, %.split
  %71 = phi i32 [ 0, %.split ], [ 1, %.split.us.us ]
  ret i32 %71

.split:                                           ; preds = %72
  %indvars.iv.next77 = add nuw nsw i64 %indvars.iv76, 1
  %exitcond79.not = icmp eq i64 %indvars.iv.next77, 4
  br i1 %exitcond79.not, label %.split73.us, label %.preheader, !llvm.loop !230

72:                                               ; preds = %.preheader, %72
  %indvars.iv = phi i64 [ 0, %.preheader ], [ %indvars.iv.next, %72 ]
  %73 = getelementptr inbounds nuw [4 x i16], ptr %4, i64 %indvars.iv76, i64 %indvars.iv
  store i16 0, ptr %73, align 2, !tbaa !15
  %74 = getelementptr inbounds nuw [4 x i16], ptr %5, i64 %indvars.iv76, i64 %indvars.iv
  store i16 0, ptr %74, align 2, !tbaa !15
  %indvars.iv.next = add nuw nsw i64 %indvars.iv, 1
  %exitcond.not = icmp eq i64 %indvars.iv.next, 4
  br i1 %exitcond.not, label %.split, label %72, !llvm.loop !229
}